; Function Attrs: mustprogress nounwind uwtable
define hidden { i32, i64 } @_ZN6hermes2vm22arrayPrototypeFindLastEPvRNS0_7RuntimeENS0_10NativeArgsE(ptr noundef %ctx, ptr noundef nonnull align 8 dereferenceable(9832) %runtime, ptr nocapture noundef readonly %args) #0 {
entry:
  %agg.tmp = alloca %"class.hermes::vm::NativeArgs", align 8
  %0 = load ptr, ptr %args, align 8
  store ptr %0, ptr %agg.tmp, align 8
  %argCount_.i = getelementptr inbounds i8, ptr %agg.tmp, i64 8
  %argCount_3.i = getelementptr inbounds i8, ptr %args, i64 8
  call void @llvm.memcpy.p0.p0.i64(ptr noundef nonnull align 8 dereferenceable(16) %argCount_.i, ptr noundef nonnull align 8 dereferenceable(16) %argCount_3.i, i64 16, i1 false)
  %call = call fastcc { i32, i64 } @_ZN6hermes2vmL10findHelperEPvbRNS0_7RuntimeENS0_10NativeArgsE(ptr noundef %ctx, i1 noundef zeroext true, ptr noundef nonnull align 8 dereferenceable(9832) %runtime, ptr noundef nonnull %agg.tmp)
  ret { i32, i64 } %call
}